; ModuleID = '5/738.c'
source_filename = "5/738.c"
target datalayout = "e-m:e-p270:32:32-p271:32:32-p272:64:64-i64:64-f80:128-n8:16:32:64-S128"
target triple = "x86_64-pc-linux-gnu"

@.str = private unnamed_addr constant [8 x i8] c"%lf%s%s\00", align 1
@.str.1 = private unnamed_addr constant [6 x i8] c"error\00", align 1
@.str.2 = private unnamed_addr constant [4 x i8] c"yes\00", align 1
@.str.3 = private unnamed_addr constant [3 x i8] c"no\00", align 1

; Function Attrs: noinline nounwind uwtable
define dso_local i32 @main() #0 {
  %1 = alloca i32, align 4
  %2 = alloca double, align 8
  %3 = alloca double, align 8
  %4 = alloca double, align 8
  %5 = alloca double, align 8
  %6 = alloca double, align 8
  %7 = alloca i32, align 4
  %8 = alloca i32, align 4
  %9 = alloca [500 x i8], align 16
  %10 = alloca [500 x i8], align 16
  store i32 0, i32* %1, align 4
  store double 0.000000e+00, double* %3, align 8
  store double 0.000000e+00, double* %5, align 8
  store double 0.000000e+00, double* %6, align 8
  store i32 0, i32* %7, align 4
  %11 = getelementptr inbounds [500 x i8], [500 x i8]* %9, i64 0, i64 0
  %12 = getelementptr inbounds [500 x i8], [500 x i8]* %10, i64 0, i64 0
  %13 = call i32 (i8*, ...) @__isoc99_scanf(i8* getelementptr inbounds ([8 x i8], [8 x i8]* @.str, i64 0, i64 0), double* %2, i8* %11, i8* %12)
  store i32 0, i32* %8, align 4
  br label %14

14:                                               ; preds = %24, %0
  %15 = load i32, i32* %8, align 4
  %16 = sext i32 %15 to i64
  %17 = getelementptr inbounds [500 x i8], [500 x i8]* %9, i64 0, i64 %16
  %18 = load i8, i8* %17, align 1
  %19 = sext i8 %18 to i32
  %20 = icmp ne i32 %19, 0
  br i1 %20, label %21, label %27

21:                                               ; preds = %14
  %22 = load double, double* %5, align 8
  %23 = fadd double %22, 1.000000e+00
  store double %23, double* %5, align 8
  br label %24

24:                                               ; preds = %21
  %25 = load i32, i32* %8, align 4
  %26 = add nsw i32 %25, 1
  store i32 %26, i32* %8, align 4
  br label %14

27:                                               ; preds = %14
  store i32 0, i32* %8, align 4
  br label %28

28:                                               ; preds = %38, %27
  %29 = load i32, i32* %8, align 4
  %30 = sext i32 %29 to i64
  %31 = getelementptr inbounds [500 x i8], [500 x i8]* %10, i64 0, i64 %30
  %32 = load i8, i8* %31, align 1
  %33 = sext i8 %32 to i32
  %34 = icmp ne i32 %33, 0
  br i1 %34, label %35, label %41

35:                                               ; preds = %28
  %36 = load double, double* %6, align 8
  %37 = fadd double %36, 1.000000e+00
  store double %37, double* %6, align 8
  br label %38

38:                                               ; preds = %35
  %39 = load i32, i32* %8, align 4
  %40 = add nsw i32 %39, 1
  store i32 %40, i32* %8, align 4
  br label %28

41:                                               ; preds = %28
  store i32 0, i32* %8, align 4
  br label %42

42:                                               ; preds = %65, %41
  %43 = load i32, i32* %8, align 4
  %44 = sext i32 %43 to i64
  %45 = getelementptr inbounds [500 x i8], [500 x i8]* %9, i64 0, i64 %44
  %46 = load i8, i8* %45, align 1
  %47 = sext i8 %46 to i32
  %48 = icmp ne i32 %47, 0
  br i1 %48, label %49, label %68

49:                                               ; preds = %42
  %50 = load i32, i32* %8, align 4
  %51 = sext i32 %50 to i64
  %52 = getelementptr inbounds [500 x i8], [500 x i8]* %9, i64 0, i64 %51
  %53 = load i8, i8* %52, align 1
  %54 = sext i8 %53 to i32
  %55 = load i32, i32* %8, align 4
  %56 = sext i32 %55 to i64
  %57 = getelementptr inbounds [500 x i8], [500 x i8]* %10, i64 0, i64 %56
  %58 = load i8, i8* %57, align 1
  %59 = sext i8 %58 to i32
  %60 = icmp eq i32 %54, %59
  br i1 %60, label %61, label %64

61:                                               ; preds = %49
  %62 = load double, double* %3, align 8
  %63 = fadd double %62, 1.000000e+00
  store double %63, double* %3, align 8
  br label %64

64:                                               ; preds = %61, %49
  br label %65

65:                                               ; preds = %64
  %66 = load i32, i32* %8, align 4
  %67 = add nsw i32 %66, 1
  store i32 %67, i32* %8, align 4
  br label %42

68:                                               ; preds = %42
  %69 = load double, double* %3, align 8
  %70 = load double, double* %5, align 8
  %71 = fdiv double %69, %70
  store double %71, double* %4, align 8
  store i32 0, i32* %8, align 4
  br label %72

72:                                               ; preds = %139, %68
  %73 = load i32, i32* %8, align 4
  %74 = sext i32 %73 to i64
  %75 = getelementptr inbounds [500 x i8], [500 x i8]* %9, i64 0, i64 %74
  %76 = load i8, i8* %75, align 1
  %77 = sext i8 %76 to i32
  %78 = icmp ne i32 %77, 0
  br i1 %78, label %79, label %142

79:                                               ; preds = %72
  %80 = load i32, i32* %8, align 4
  %81 = sext i32 %80 to i64
  %82 = getelementptr inbounds [500 x i8], [500 x i8]* %9, i64 0, i64 %81
  %83 = load i8, i8* %82, align 1
  %84 = sext i8 %83 to i32
  %85 = icmp ne i32 %84, 65
  br i1 %85, label %86, label %107

86:                                               ; preds = %79
  %87 = load i32, i32* %8, align 4
  %88 = sext i32 %87 to i64
  %89 = getelementptr inbounds [500 x i8], [500 x i8]* %9, i64 0, i64 %88
  %90 = load i8, i8* %89, align 1
  %91 = sext i8 %90 to i32
  %92 = icmp ne i32 %91, 84
  br i1 %92, label %93, label %107

93:                                               ; preds = %86
  %94 = load i32, i32* %8, align 4
  %95 = sext i32 %94 to i64
  %96 = getelementptr inbounds [500 x i8], [500 x i8]* %9, i64 0, i64 %95
  %97 = load i8, i8* %96, align 1
  %98 = sext i8 %97 to i32
  %99 = icmp ne i32 %98, 67
  br i1 %99, label %100, label %107

100:                                              ; preds = %93
  %101 = load i32, i32* %8, align 4
  %102 = sext i32 %101 to i64
  %103 = getelementptr inbounds [500 x i8], [500 x i8]* %9, i64 0, i64 %102
  %104 = load i8, i8* %103, align 1
  %105 = sext i8 %104 to i32
  %106 = icmp ne i32 %105, 71
  br i1 %106, label %135, label %107

107:                                              ; preds = %100, %93, %86, %79
  %108 = load i32, i32* %8, align 4
  %109 = sext i32 %108 to i64
  %110 = getelementptr inbounds [500 x i8], [500 x i8]* %10, i64 0, i64 %109
  %111 = load i8, i8* %110, align 1
  %112 = sext i8 %111 to i32
  %113 = icmp ne i32 %112, 65
  br i1 %113, label %114, label %138

114:                                              ; preds = %107
  %115 = load i32, i32* %8, align 4
  %116 = sext i32 %115 to i64
  %117 = getelementptr inbounds [500 x i8], [500 x i8]* %10, i64 0, i64 %116
  %118 = load i8, i8* %117, align 1
  %119 = sext i8 %118 to i32
  %120 = icmp ne i32 %119, 84
  br i1 %120, label %121, label %138

121:                                              ; preds = %114
  %122 = load i32, i32* %8, align 4
  %123 = sext i32 %122 to i64
  %124 = getelementptr inbounds [500 x i8], [500 x i8]* %10, i64 0, i64 %123
  %125 = load i8, i8* %124, align 1
  %126 = sext i8 %125 to i32
  %127 = icmp ne i32 %126, 67
  br i1 %127, label %128, label %138

128:                                              ; preds = %121
  %129 = load i32, i32* %8, align 4
  %130 = sext i32 %129 to i64
  %131 = getelementptr inbounds [500 x i8], [500 x i8]* %10, i64 0, i64 %130
  %132 = load i8, i8* %131, align 1
  %133 = sext i8 %132 to i32
  %134 = icmp ne i32 %133, 71
  br i1 %134, label %135, label %138

135:                                              ; preds = %128, %100
  %136 = load i32, i32* %7, align 4
  %137 = add nsw i32 %136, 1
  store i32 %137, i32* %7, align 4
  br label %138

138:                                              ; preds = %135, %128, %121, %114, %107
  br label %139

139:                                              ; preds = %138
  %140 = load i32, i32* %8, align 4
  %141 = add nsw i32 %140, 1
  store i32 %141, i32* %8, align 4
  br label %72

142:                                              ; preds = %72
  %143 = load i32, i32* %7, align 4
  %144 = icmp sgt i32 %143, 0
  br i1 %144, label %149, label %145

145:                                              ; preds = %142
  %146 = load double, double* %5, align 8
  %147 = load double, double* %6, align 8
  %148 = fcmp une double %146, %147
  br i1 %148, label %149, label %151

149:                                              ; preds = %145, %142
  %150 = call i32 (i8*, ...) @printf(i8* getelementptr inbounds ([6 x i8], [6 x i8]* @.str.1, i64 0, i64 0))
  br label %160

151:                                              ; preds = %145
  %152 = load double, double* %4, align 8
  %153 = load double, double* %2, align 8
  %154 = fcmp oge double %152, %153
  br i1 %154, label %155, label %157

155:                                              ; preds = %151
  %156 = call i32 (i8*, ...) @printf(i8* getelementptr inbounds ([4 x i8], [4 x i8]* @.str.2, i64 0, i64 0))
  br label %159

157:                                              ; preds = %151
  %158 = call i32 (i8*, ...) @printf(i8* getelementptr inbounds ([3 x i8], [3 x i8]* @.str.3, i64 0, i64 0))
  br label %159

159:                                              ; preds = %157, %155
  br label %160

160:                                              ; preds = %159, %149
  ret i32 0
}

declare dso_local i32 @__isoc99_scanf(i8*, ...) #1

declare dso_local i32 @printf(i8*, ...) #1


!llvm.module.flags = !{!0}
!llvm.ident = !{!1}

!0 = !{i32 1, !"wchar_size", i32 4}
!1 = !{!"clang version 10.0.0-4ubuntu1 "}
